target datalayout = "e-m:e-p270:32:32-p271:32:32-p272:64:64-i64:64-i128:128-f80:128-n8:16:32:64-S128"
target triple = "x86_64-pc-linux-gnu"

%struct.SDL_AtomicInt = type { i32 }
%struct.SDL_TLSData = type { i32, [1 x %struct.anon] }
%struct.anon = type { ptr, ptr }

@.str = private unnamed_addr constant [26 x i8] c"Parameter '%s' is invalid\00", align 1
@.str.1 = private unnamed_addr constant [3 x i8] c"id\00", align 1
@SDL_tls_id = internal global %struct.SDL_AtomicInt zeroinitializer, align 4
@SDL_tls_allocated = internal global %struct.SDL_AtomicInt zeroinitializer, align 4

; Function Attrs: nounwind uwtable
define hidden void @SDL_InitTLSData() #0 {
  call void @SDL_SYS_InitTLSData()
  ret void
}

; Function Attrs: nounwind uwtable
define hidden zeroext i1 @SDL_SetTLS_REAL(ptr noundef %0, ptr noundef %1, ptr noundef %2) #0 {
  %4 = alloca i1, align 1
  %5 = alloca ptr, align 8
  %6 = alloca ptr, align 8
  %7 = alloca ptr, align 8
  %8 = alloca ptr, align 8
  %9 = alloca i32, align 4
  %10 = alloca i32, align 4
  %11 = alloca i32, align 4
  %12 = alloca i32, align 4
  %13 = alloca i32, align 4
  %14 = alloca i32, align 4
  %15 = alloca ptr, align 8
  store ptr %0, ptr %5, align 8
  store ptr %1, ptr %6, align 8
  store ptr %2, ptr %7, align 8
  call void @llvm.lifetime.start.p0(i64 8, ptr %8) #6
  call void @llvm.lifetime.start.p0(i64 4, ptr %9) #6
  %16 = load ptr, ptr %5, align 8
  %17 = icmp eq ptr %16, null
  br i1 %17, label %18, label %20

18:                                               ; preds = %3
  %19 = call zeroext i1 (ptr, ...) @SDL_SetError_REAL(ptr noundef @.str, ptr noundef @.str.1)
  store i1 %19, ptr %4, align 1
  store i32 1, ptr %10, align 4
  br label %118

20:                                               ; preds = %3
  call void @SDL_InitTLSData()
  %21 = load ptr, ptr %5, align 8
  %22 = call i32 @SDL_GetAtomicInt_REAL(ptr noundef %21)
  %23 = sub nsw i32 %22, 1
  store i32 %23, ptr %9, align 4
  %24 = load i32, ptr %9, align 4
  %25 = icmp slt i32 %24, 0
  br i1 %25, label %26, label %35

26:                                               ; preds = %20
  call void @llvm.lifetime.start.p0(i64 4, ptr %11) #6
  %27 = call i32 @SDL_AddAtomicInt_REAL(ptr noundef @SDL_tls_id, i32 noundef 1)
  %28 = add nsw i32 %27, 1
  store i32 %28, ptr %11, align 4
  %29 = load ptr, ptr %5, align 8
  %30 = load i32, ptr %11, align 4
  %31 = call zeroext i1 @SDL_CompareAndSwapAtomicInt_REAL(ptr noundef %29, i32 noundef 0, i32 noundef %30)
  %32 = load ptr, ptr %5, align 8
  %33 = call i32 @SDL_GetAtomicInt_REAL(ptr noundef %32)
  %34 = sub nsw i32 %33, 1
  store i32 %34, ptr %9, align 4
  call void @llvm.lifetime.end.p0(i64 4, ptr %11) #6
  br label %35

35:                                               ; preds = %26, %20
  %36 = call ptr @SDL_SYS_GetTLSData()
  store ptr %36, ptr %8, align 8
  %37 = load ptr, ptr %8, align 8
  %38 = icmp ne ptr %37, null
  br i1 %38, label %39, label %45

39:                                               ; preds = %35
  %40 = load i32, ptr %9, align 4
  %41 = load ptr, ptr %8, align 8
  %42 = getelementptr inbounds nuw %struct.SDL_TLSData, ptr %41, i32 0, i32 0
  %43 = load i32, ptr %42, align 8
  %44 = icmp sge i32 %40, %43
  br i1 %44, label %45, label %103

45:                                               ; preds = %39, %35
  call void @llvm.lifetime.start.p0(i64 4, ptr %12) #6
  call void @llvm.lifetime.start.p0(i64 4, ptr %13) #6
  call void @llvm.lifetime.start.p0(i64 4, ptr %14) #6
  call void @llvm.lifetime.start.p0(i64 8, ptr %15) #6
  %46 = load ptr, ptr %8, align 8
  %47 = icmp ne ptr %46, null
  br i1 %47, label %48, label %52

48:                                               ; preds = %45
  %49 = load ptr, ptr %8, align 8
  %50 = getelementptr inbounds nuw %struct.SDL_TLSData, ptr %49, i32 0, i32 0
  %51 = load i32, ptr %50, align 8
  br label %53

52:                                               ; preds = %45
  br label %53

53:                                               ; preds = %52, %48
  %54 = phi i32 [ %51, %48 ], [ 0, %52 ]
  store i32 %54, ptr %13, align 4
  %55 = load i32, ptr %9, align 4
  %56 = add nsw i32 %55, 4
  store i32 %56, ptr %14, align 4
  %57 = load ptr, ptr %8, align 8
  %58 = load i32, ptr %14, align 4
  %59 = sub i32 %58, 1
  %60 = zext i32 %59 to i64
  %61 = mul i64 %60, 16
  %62 = add i64 24, %61
  %63 = call ptr @SDL_realloc_REAL(ptr noundef %57, i64 noundef %62) #7
  store ptr %63, ptr %15, align 8
  %64 = load ptr, ptr %15, align 8
  %65 = icmp ne ptr %64, null
  br i1 %65, label %67, label %66

66:                                               ; preds = %53
  store i1 false, ptr %4, align 1
  store i32 1, ptr %10, align 4
  br label %100

67:                                               ; preds = %53
  %68 = load ptr, ptr %15, align 8
  store ptr %68, ptr %8, align 8
  %69 = load i32, ptr %14, align 4
  %70 = load ptr, ptr %8, align 8
  %71 = getelementptr inbounds nuw %struct.SDL_TLSData, ptr %70, i32 0, i32 0
  store i32 %69, ptr %71, align 8
  %72 = load i32, ptr %13, align 4
  store i32 %72, ptr %12, align 4
  br label %73

73:                                               ; preds = %90, %67
  %74 = load i32, ptr %12, align 4
  %75 = load i32, ptr %14, align 4
  %76 = icmp ult i32 %74, %75
  br i1 %76, label %77, label %93

77:                                               ; preds = %73
  %78 = load ptr, ptr %8, align 8
  %79 = getelementptr inbounds nuw %struct.SDL_TLSData, ptr %78, i32 0, i32 1
  %80 = load i32, ptr %12, align 4
  %81 = zext i32 %80 to i64
  %82 = getelementptr inbounds nuw [1 x %struct.anon], ptr %79, i64 0, i64 %81
  %83 = getelementptr inbounds nuw %struct.anon, ptr %82, i32 0, i32 0
  store ptr null, ptr %83, align 8
  %84 = load ptr, ptr %8, align 8
  %85 = getelementptr inbounds nuw %struct.SDL_TLSData, ptr %84, i32 0, i32 1
  %86 = load i32, ptr %12, align 4
  %87 = zext i32 %86 to i64
  %88 = getelementptr inbounds nuw [1 x %struct.anon], ptr %85, i64 0, i64 %87
  %89 = getelementptr inbounds nuw %struct.anon, ptr %88, i32 0, i32 1
  store ptr null, ptr %89, align 8
  br label %90

90:                                               ; preds = %77
  %91 = load i32, ptr %12, align 4
  %92 = add i32 %91, 1
  store i32 %92, ptr %12, align 4
  br label %73, !llvm.loop !3

93:                                               ; preds = %73
  %94 = load ptr, ptr %8, align 8
  %95 = call zeroext i1 @SDL_SYS_SetTLSData(ptr noundef %94)
  br i1 %95, label %98, label %96

96:                                               ; preds = %93
  %97 = load ptr, ptr %8, align 8
  call void @SDL_free_REAL(ptr noundef %97)
  store i1 false, ptr %4, align 1
  store i32 1, ptr %10, align 4
  br label %100

98:                                               ; preds = %93
  %99 = call i32 @SDL_AddAtomicInt_REAL(ptr noundef @SDL_tls_allocated, i32 noundef 1)
  store i32 0, ptr %10, align 4
  br label %100

100:                                              ; preds = %98, %96, %66
  call void @llvm.lifetime.end.p0(i64 8, ptr %15) #6
  call void @llvm.lifetime.end.p0(i64 4, ptr %14) #6
  call void @llvm.lifetime.end.p0(i64 4, ptr %13) #6
  call void @llvm.lifetime.end.p0(i64 4, ptr %12) #6
  %101 = load i32, ptr %10, align 4
  switch i32 %101, label %118 [
    i32 0, label %102
  ]

102:                                              ; preds = %100
  br label %103

103:                                              ; preds = %102, %39
  %104 = load ptr, ptr %6, align 8
  %105 = load ptr, ptr %8, align 8
  %106 = getelementptr inbounds nuw %struct.SDL_TLSData, ptr %105, i32 0, i32 1
  %107 = load i32, ptr %9, align 4
  %108 = sext i32 %107 to i64
  %109 = getelementptr inbounds [1 x %struct.anon], ptr %106, i64 0, i64 %108
  %110 = getelementptr inbounds nuw %struct.anon, ptr %109, i32 0, i32 0
  store ptr %104, ptr %110, align 8
  %111 = load ptr, ptr %7, align 8
  %112 = load ptr, ptr %8, align 8
  %113 = getelementptr inbounds nuw %struct.SDL_TLSData, ptr %112, i32 0, i32 1
  %114 = load i32, ptr %9, align 4
  %115 = sext i32 %114 to i64
  %116 = getelementptr inbounds [1 x %struct.anon], ptr %113, i64 0, i64 %115
  %117 = getelementptr inbounds nuw %struct.anon, ptr %116, i32 0, i32 1
  store ptr %111, ptr %117, align 8
  store i1 true, ptr %4, align 1
  store i32 1, ptr %10, align 4
  br label %118

118:                                              ; preds = %103, %100, %18
  call void @llvm.lifetime.end.p0(i64 4, ptr %9) #6
  call void @llvm.lifetime.end.p0(i64 8, ptr %8) #6
  %119 = load i1, ptr %4, align 1
  ret i1 %119
}