; Function Attrs: nounwind uwtable
define hidden zeroext i1 @SDL_SetTLS_REAL(ptr noundef %0, ptr noundef %1, ptr noundef %2) local_unnamed_addr #0 {
  %4 = icmp eq ptr %0, null
  br i1 %4, label %5, label %7

5:                                                ; preds = %3
  %6 = tail call zeroext i1 (ptr, ...) @SDL_SetError_REAL(ptr noundef nonnull @.str, ptr noundef nonnull @.str.1) #6
  br label %.thread

7:                                                ; preds = %3
  tail call void @SDL_SYS_InitTLSData() #6
  %8 = tail call i32 @SDL_GetAtomicInt_REAL(ptr noundef nonnull %0) #6
  %9 = icmp slt i32 %8, 1
  br i1 %9, label %10, label %15

10:                                               ; preds = %7
  %11 = tail call i32 @SDL_AddAtomicInt_REAL(ptr noundef nonnull @SDL_tls_id, i32 noundef 1) #6
  %12 = add nsw i32 %11, 1
  %13 = tail call zeroext i1 @SDL_CompareAndSwapAtomicInt_REAL(ptr noundef nonnull %0, i32 noundef 0, i32 noundef %12) #6
  %14 = tail call i32 @SDL_GetAtomicInt_REAL(ptr noundef nonnull %0) #6
  br label %15

15:                                               ; preds = %10, %7
  %.037.in = phi i32 [ %14, %10 ], [ %8, %7 ]
  %.037 = add nsw i32 %.037.in, -1
  %16 = tail call ptr @SDL_SYS_GetTLSData() #6
  %.not = icmp eq ptr %16, null
  br i1 %.not, label %.critedge, label %17

17:                                               ; preds = %15
  %18 = load i32, ptr %16, align 8
  %.not44.not = icmp sgt i32 %.037.in, %18
  br i1 %.not44.not, label %.critedge, label %39

.critedge:                                        ; preds = %17, %15
  %19 = phi i32 [ 0, %15 ], [ %18, %17 ]
  %20 = add i32 %.037.in, 2
  %21 = zext i32 %20 to i64
  %22 = shl nuw nsw i64 %21, 4
  %23 = add nuw nsw i64 %22, 24
  %24 = tail call ptr @SDL_realloc_REAL(ptr noundef %16, i64 noundef %23) #7
  %.not45 = icmp eq ptr %24, null
  br i1 %.not45, label %.thread, label %25

25:                                               ; preds = %.critedge
  %26 = add nsw i32 %.037.in, 3
  store i32 %26, ptr %24, align 8
  %27 = icmp ult i32 %19, %26
  br i1 %27, label %.lr.ph, label %._crit_edge

.lr.ph:                                           ; preds = %25
  %28 = zext i32 %19 to i64
  %29 = shl nuw nsw i64 %28, 4
  %30 = getelementptr i8, ptr %24, i64 %29
  %scevgep = getelementptr i8, ptr %30, i64 8
  %31 = sub i32 %20, %19
  %32 = zext i32 %31 to i64
  %33 = shl nuw nsw i64 %32, 4
  %34 = add nuw nsw i64 %33, 16
  tail call void @llvm.memset.p0.i64(ptr noundef nonnull align 8 dereferenceable(1) %scevgep, i8 0, i64 %34, i1 false)
  br label %._crit_edge

._crit_edge:                                      ; preds = %.lr.ph, %25
  %35 = tail call zeroext i1 @SDL_SYS_SetTLSData(ptr noundef nonnull %24) #6
  br i1 %35, label %37, label %36

36:                                               ; preds = %._crit_edge
  tail call void @SDL_free_REAL(ptr noundef nonnull %24) #6
  br label %.thread

37:                                               ; preds = %._crit_edge
  %38 = tail call i32 @SDL_AddAtomicInt_REAL(ptr noundef nonnull @SDL_tls_allocated, i32 noundef 1) #6
  br label %39

39:                                               ; preds = %37, %17
  %.035 = phi ptr [ %24, %37 ], [ %16, %17 ]
  %40 = getelementptr inbounds nuw i8, ptr %.035, i64 8
  %41 = sext i32 %.037 to i64
  %42 = getelementptr inbounds [1 x %struct.anon], ptr %40, i64 0, i64 %41
  store ptr %1, ptr %42, align 8
  %43 = getelementptr inbounds nuw i8, ptr %42, i64 8
  store ptr %2, ptr %43, align 8
  br label %.thread

.thread:                                          ; preds = %.critedge, %36, %39, %5
  %.0 = phi i1 [ %6, %5 ], [ true, %39 ], [ false, %36 ], [ false, %.critedge ]
  ret i1 %.0
}